; Function Attrs: mustprogress nounwind uwtable
define void @_ZN6casadi5ConicD2Ev(ptr noundef nonnull align 8 dereferenceable(1520) initializes((0, 8), (1312, 1320)) %0) unnamed_addr #5 align 2 personality ptr @__gxx_personality_v0 {
  store ptr getelementptr inbounds nuw inrange(-16, 968) (i8, ptr @_ZTVN6casadi5ConicE, i64 16), ptr %0, align 8, !tbaa !29
  %2 = getelementptr inbounds nuw i8, ptr %0, i64 1312
  store ptr getelementptr inbounds nuw inrange(-16, 8) (i8, ptr @_ZTVN6casadi5ConicE, i64 1000), ptr %2, align 8, !tbaa !29
  %3 = getelementptr inbounds nuw i8, ptr %0, i64 1488
  invoke void @_ZN6casadi13GenericSharedINS_12SharedObjectENS_20SharedObjectInternalEE10count_downEv(ptr noundef nonnull align 8 dereferenceable(8) %3)
          to label %_ZN6casadi13GenericSharedINS_12SharedObjectENS_20SharedObjectInternalEED2Ev.exit unwind label %4

4:                                                ; preds = %1
  %5 = landingpad { ptr, i32 }
          catch ptr null
  %6 = extractvalue { ptr, i32 } %5, 0
  tail call void @__clang_call_terminate(ptr %6) #35
  unreachable

_ZN6casadi13GenericSharedINS_12SharedObjectENS_20SharedObjectInternalEED2Ev.exit: ; preds = %1
  %7 = getelementptr inbounds nuw i8, ptr %0, i64 1480
  invoke void @_ZN6casadi13GenericSharedINS_12SharedObjectENS_20SharedObjectInternalEE10count_downEv(ptr noundef nonnull align 8 dereferenceable(8) %7)
          to label %_ZN6casadi13GenericSharedINS_12SharedObjectENS_20SharedObjectInternalEED2Ev.exit1 unwind label %8

8:                                                ; preds = %_ZN6casadi13GenericSharedINS_12SharedObjectENS_20SharedObjectInternalEED2Ev.exit
  %9 = landingpad { ptr, i32 }
          catch ptr null
  %10 = extractvalue { ptr, i32 } %9, 0
  tail call void @__clang_call_terminate(ptr %10) #35
  unreachable

_ZN6casadi13GenericSharedINS_12SharedObjectENS_20SharedObjectInternalEED2Ev.exit1: ; preds = %_ZN6casadi13GenericSharedINS_12SharedObjectENS_20SharedObjectInternalEED2Ev.exit
  %11 = getelementptr inbounds nuw i8, ptr %0, i64 1472
  invoke void @_ZN6casadi13GenericSharedINS_12SharedObjectENS_20SharedObjectInternalEE10count_downEv(ptr noundef nonnull align 8 dereferenceable(8) %11)
          to label %_ZN6casadi13GenericSharedINS_12SharedObjectENS_20SharedObjectInternalEED2Ev.exit2 unwind label %12

12:                                               ; preds = %_ZN6casadi13GenericSharedINS_12SharedObjectENS_20SharedObjectInternalEED2Ev.exit1
  %13 = landingpad { ptr, i32 }
          catch ptr null
  %14 = extractvalue { ptr, i32 } %13, 0
  tail call void @__clang_call_terminate(ptr %14) #35
  unreachable

_ZN6casadi13GenericSharedINS_12SharedObjectENS_20SharedObjectInternalEED2Ev.exit2: ; preds = %_ZN6casadi13GenericSharedINS_12SharedObjectENS_20SharedObjectInternalEED2Ev.exit1
  %15 = getelementptr inbounds nuw i8, ptr %0, i64 1464
  invoke void @_ZN6casadi13GenericSharedINS_12SharedObjectENS_20SharedObjectInternalEE10count_downEv(ptr noundef nonnull align 8 dereferenceable(8) %15)
          to label %_ZN6casadi13GenericSharedINS_12SharedObjectENS_20SharedObjectInternalEED2Ev.exit3 unwind label %16

16:                                               ; preds = %_ZN6casadi13GenericSharedINS_12SharedObjectENS_20SharedObjectInternalEED2Ev.exit2
  %17 = landingpad { ptr, i32 }
          catch ptr null
  %18 = extractvalue { ptr, i32 } %17, 0
  tail call void @__clang_call_terminate(ptr %18) #35
  unreachable

_ZN6casadi13GenericSharedINS_12SharedObjectENS_20SharedObjectInternalEED2Ev.exit3: ; preds = %_ZN6casadi13GenericSharedINS_12SharedObjectENS_20SharedObjectInternalEED2Ev.exit2
  %19 = getelementptr inbounds nuw i8, ptr %0, i64 1416
  %20 = load ptr, ptr %19, align 8, !tbaa !195
  %.not.i.i = icmp eq ptr %20, null
  br i1 %.not.i.i, label %_ZNSt13_Bvector_baseISaIbEED2Ev.exit, label %21

21:                                               ; preds = %_ZN6casadi13GenericSharedINS_12SharedObjectENS_20SharedObjectInternalEED2Ev.exit3
  %22 = getelementptr inbounds nuw i8, ptr %0, i64 1448
  %23 = load ptr, ptr %22, align 8, !tbaa !199
  %24 = ptrtoint ptr %23 to i64
  %25 = ptrtoint ptr %20 to i64
  %26 = sub i64 %24, %25
  %27 = ashr exact i64 %26, 3
  %28 = sub nsw i64 0, %27
  %29 = getelementptr inbounds i64, ptr %23, i64 %28
  tail call void @_ZdlPvm(ptr noundef %29, i64 noundef %26) #34
  store ptr null, ptr %19, align 8
  %.sroa.4.0..sroa_idx.i.i.i = getelementptr inbounds nuw i8, ptr %0, i64 1424
  store i32 0, ptr %.sroa.4.0..sroa_idx.i.i.i, align 8
  %.sroa.51.0..sroa_idx.i.i.i = getelementptr inbounds nuw i8, ptr %0, i64 1432
  store ptr null, ptr %.sroa.51.0..sroa_idx.i.i.i, align 8
  %.sroa.6.0..sroa_idx.i.i.i = getelementptr inbounds nuw i8, ptr %0, i64 1440
  store i32 0, ptr %.sroa.6.0..sroa_idx.i.i.i, align 8
  store ptr null, ptr %22, align 8
  br label %_ZNSt13_Bvector_baseISaIbEED2Ev.exit

_ZNSt13_Bvector_baseISaIbEED2Ev.exit:             ; preds = %_ZN6casadi13GenericSharedINS_12SharedObjectENS_20SharedObjectInternalEED2Ev.exit3, %21
  %30 = getelementptr inbounds nuw i8, ptr %0, i64 1376
  %31 = load ptr, ptr %30, align 8, !tbaa !195
  %.not.i.i4 = icmp eq ptr %31, null
  br i1 %.not.i.i4, label %_ZNSt13_Bvector_baseISaIbEED2Ev.exit8, label %32

32:                                               ; preds = %_ZNSt13_Bvector_baseISaIbEED2Ev.exit
  %33 = getelementptr inbounds nuw i8, ptr %0, i64 1408
  %34 = load ptr, ptr %33, align 8, !tbaa !199
  %35 = ptrtoint ptr %34 to i64
  %36 = ptrtoint ptr %31 to i64
  %37 = sub i64 %35, %36
  %38 = ashr exact i64 %37, 3
  %39 = sub nsw i64 0, %38
  %40 = getelementptr inbounds i64, ptr %34, i64 %39
  tail call void @_ZdlPvm(ptr noundef %40, i64 noundef %37) #34
  store ptr null, ptr %30, align 8
  %.sroa.4.0..sroa_idx.i.i.i5 = getelementptr inbounds nuw i8, ptr %0, i64 1384
  store i32 0, ptr %.sroa.4.0..sroa_idx.i.i.i5, align 8
  %.sroa.51.0..sroa_idx.i.i.i6 = getelementptr inbounds nuw i8, ptr %0, i64 1392
  store ptr null, ptr %.sroa.51.0..sroa_idx.i.i.i6, align 8
  %.sroa.6.0..sroa_idx.i.i.i7 = getelementptr inbounds nuw i8, ptr %0, i64 1400
  store i32 0, ptr %.sroa.6.0..sroa_idx.i.i.i7, align 8
  store ptr null, ptr %33, align 8
  br label %_ZNSt13_Bvector_baseISaIbEED2Ev.exit8

_ZNSt13_Bvector_baseISaIbEED2Ev.exit8:            ; preds = %_ZNSt13_Bvector_baseISaIbEED2Ev.exit, %32
  tail call void @_ZN6casadi16FunctionInternalD2Ev(ptr noundef nonnull align 8 dereferenceable(1312) %0) #33
  ret void
}